target datalayout = "e-m:e-p270:32:32-p271:32:32-p272:64:64-i64:64-i128:128-f80:128-n8:16:32:64-S128"
target triple = "x86_64-pc-linux-gnu"

%struct.H5E_stack_t = type { i64, [32 x %struct.H5E_entry_t], %struct.H5E_auto_op_t, ptr, i32 }
%struct.H5E_entry_t = type { i8, %struct.H5E_error2_t }
%struct.H5E_error2_t = type { i64, i64, i64, i32, ptr, ptr, ptr }
%struct.H5E_auto_op_t = type { i32, i8, ptr, ptr, ptr, ptr }

@H5_H5E_stack_t_reg_free_list = global { i8, [3 x i8], i32, i32, [4 x i8], ptr, i64, ptr } { i8 0, [3 x i8] zeroinitializer, i32 0, i32 0, [4 x i8] zeroinitializer, ptr @.str, i64 2112, ptr null }, align 8
@H5E_ERROR_g = global i64 -1, align 8
@H5E_RESOURCE_g = global i64 -1, align 8
@H5E_CANTGET_g = global i64 -1, align 8
@H5E_CANTSET_g = global i64 -1, align 8
@H5E_NOSPACE_g = global i64 -1, align 8
@H5E_init_g = external global i8, align 1
@H5_libterm_g = external global i8, align 1
@.str.1 = private unnamed_addr constant [100 x i8] c"generated/home/dtcxzyw/WorkSpace/Projects/compilers/llvm-opt-benchmark/bench/hdf5/hdf5/src/H5Eint.c\00", align 1
@H5E_stack_g = global [1 x %struct.H5E_stack_t] zeroinitializer, align 16
@.str.7 = private unnamed_addr constant [30 x i8] c"can't get current error stack\00", align 1
@.str.8 = private unnamed_addr constant [25 x i8] c"memory allocation failed\00", align 1
@__func__.H5E__get_current_stack = private unnamed_addr constant [23 x i8] c"H5E__get_current_stack\00", align 1
@.str.10 = private unnamed_addr constant [22 x i8] c"can't set error entry\00", align 1
@.str.15 = private unnamed_addr constant [24 x i8] c"can't clear error stack\00", align 1
@__func__.H5E__destroy_stack = private unnamed_addr constant [19 x i8] c"H5E__destroy_stack\00", align 1

; Function Attrs: nounwind uwtable
define i32 @H5E__destroy_stack(ptr noundef %0) #0 {
  %2 = alloca ptr, align 8
  %3 = alloca i32, align 4
  %4 = alloca i8, align 1
  store ptr %0, ptr %2, align 8, !tbaa !16
  call void @llvm.lifetime.start.p0(i64 4, ptr %3) #9
  store i32 0, ptr %3, align 4, !tbaa !3
  call void @llvm.lifetime.start.p0(i64 1, ptr %4) #9
  store i8 0, ptr %4, align 1, !tbaa !7
  %5 = load i8, ptr @H5E_init_g, align 1, !tbaa !7, !range !9, !noundef !10
  %6 = trunc i8 %5 to i1
  br i1 %6, label %11, label %7

7:                                                ; preds = %1
  %8 = load i8, ptr @H5_libterm_g, align 1, !tbaa !7, !range !9, !noundef !10
  %9 = trunc i8 %8 to i1
  %10 = xor i1 %9, true
  br label %11

11:                                               ; preds = %7, %1
  %12 = phi i1 [ true, %1 ], [ %10, %7 ]
  %13 = xor i1 %12, true
  %14 = xor i1 %13, true
  %15 = zext i1 %14 to i32
  %16 = sext i32 %15 to i64
  %17 = call i64 @llvm.expect.i64(i64 %16, i64 1)
  %18 = icmp ne i64 %17, 0
  br i1 %18, label %19, label %77

19:                                               ; preds = %11
  %20 = load ptr, ptr %2, align 8, !tbaa !16
  %21 = icmp eq ptr %20, null
  br i1 %21, label %22, label %43

22:                                               ; preds = %19
  store ptr @H5E_stack_g, ptr %2, align 8, !tbaa !16
  br i1 false, label %23, label %42

23:                                               ; preds = %22
  br label %24

24:                                               ; preds = %23
  br label %25

25:                                               ; preds = %24
  br label %26

26:                                               ; preds = %25
  %27 = load i64, ptr @H5E_ERROR_g, align 8, !tbaa !11
  %28 = load i64, ptr @H5E_CANTGET_g, align 8, !tbaa !11
  %29 = call i32 (ptr, ptr, i32, i64, i64, ptr, ...) @H5E_printf_stack(ptr noundef @.str.1, ptr noundef @__func__.H5E__destroy_stack, i32 noundef 1887, i64 noundef %27, i64 noundef %28, ptr noundef @.str.7)
  br label %30

30:                                               ; preds = %26
  br label %31

31:                                               ; preds = %30
  store i8 1, ptr %4, align 1, !tbaa !7
  %32 = load i8, ptr %4, align 1, !tbaa !7, !range !9, !noundef !10
  %33 = trunc i8 %32 to i1
  %34 = zext i1 %33 to i8
  store i8 %34, ptr %4, align 1, !tbaa !7
  br label %35

35:                                               ; preds = %31
  br label %36

36:                                               ; preds = %35
  br label %37

37:                                               ; preds = %36
  store i32 -1, ptr %3, align 4, !tbaa !3
  br label %76

38:                                               ; No predecessors!
  br label %39

39:                                               ; preds = %38
  br label %40

40:                                               ; preds = %39
  br label %41

41:                                               ; preds = %40
  br label %42

42:                                               ; preds = %41, %22
  br label %43

43:                                               ; preds = %42, %19
  %44 = load ptr, ptr %2, align 8, !tbaa !16
  %45 = getelementptr inbounds nuw %struct.H5E_stack_t, ptr %44, i32 0, i32 0
  %46 = load i64, ptr %45, align 8, !tbaa !21
  %47 = icmp ne i64 %46, 0
  br i1 %47, label %48, label %75

48:                                               ; preds = %43
  %49 = load ptr, ptr %2, align 8, !tbaa !16
  %50 = load ptr, ptr %2, align 8, !tbaa !16
  %51 = getelementptr inbounds nuw %struct.H5E_stack_t, ptr %50, i32 0, i32 0
  %52 = load i64, ptr %51, align 8, !tbaa !21
  %53 = call i32 @H5E__clear_entries(ptr noundef %49, i64 noundef %52)
  %54 = icmp slt i32 %53, 0
  br i1 %54, label %55, label %74

55:                                               ; preds = %48
  br label %56

56:                                               ; preds = %55
  br label %57

57:                                               ; preds = %56
  br label %58

58:                                               ; preds = %57
  %59 = load i64, ptr @H5E_ERROR_g, align 8, !tbaa !11
  %60 = load i64, ptr @H5E_CANTSET_g, align 8, !tbaa !11
  %61 = call i32 (ptr, ptr, i32, i64, i64, ptr, ...) @H5E_printf_stack(ptr noundef @.str.1, ptr noundef @__func__.H5E__destroy_stack, i32 noundef 1892, i64 noundef %59, i64 noundef %60, ptr noundef @.str.15)
  br label %62

62:                                               ; preds = %58
  br label %63

63:                                               ; preds = %62
  store i8 1, ptr %4, align 1, !tbaa !7
  %64 = load i8, ptr %4, align 1, !tbaa !7, !range !9, !noundef !10
  %65 = trunc i8 %64 to i1
  %66 = zext i1 %65 to i8
  store i8 %66, ptr %4, align 1, !tbaa !7
  br label %67

67:                                               ; preds = %63
  br label %68

68:                                               ; preds = %67
  br label %69

69:                                               ; preds = %68
  store i32 -1, ptr %3, align 4, !tbaa !3
  br label %76

70:                                               ; No predecessors!
  br label %71

71:                                               ; preds = %70
  br label %72

72:                                               ; preds = %71
  br label %73

73:                                               ; preds = %72
  br label %74

74:                                               ; preds = %73, %48
  br label %75

75:                                               ; preds = %74, %43
  br label %76

76:                                               ; preds = %75, %69, %37
  br label %77

77:                                               ; preds = %76, %11
  %78 = load i32, ptr %3, align 4, !tbaa !3
  call void @llvm.lifetime.end.p0(i64 1, ptr %4) #9
  call void @llvm.lifetime.end.p0(i64 4, ptr %3) #9
  ret i32 %78
}

; Function Attrs: nounwind uwtable
define ptr @H5E__get_current_stack() #0 {
  %1 = alloca ptr, align 8
  %2 = alloca ptr, align 8
  %3 = alloca i32, align 4
  %4 = alloca ptr, align 8
  %5 = alloca i8, align 1
  call void @llvm.lifetime.start.p0(i64 8, ptr %1) #9
  call void @llvm.lifetime.start.p0(i64 8, ptr %2) #9
  store ptr null, ptr %2, align 8, !tbaa !16
  call void @llvm.lifetime.start.p0(i64 4, ptr %3) #9
  call void @llvm.lifetime.start.p0(i64 8, ptr %4) #9
  store ptr null, ptr %4, align 8, !tbaa !16
  call void @llvm.lifetime.start.p0(i64 1, ptr %5) #9
  store i8 0, ptr %5, align 1, !tbaa !7
  %6 = load i8, ptr @H5E_init_g, align 1, !tbaa !7, !range !9, !noundef !10
  %7 = trunc i8 %6 to i1
  br i1 %7, label %12, label %8

8:                                                ; preds = %0
  %9 = load i8, ptr @H5_libterm_g, align 1, !tbaa !7, !range !9, !noundef !10
  %10 = trunc i8 %9 to i1
  %11 = xor i1 %10, true
  br label %12

12:                                               ; preds = %8, %0
  %13 = phi i1 [ true, %0 ], [ %11, %8 ]
  %14 = xor i1 %13, true
  %15 = xor i1 %14, true
  %16 = zext i1 %15 to i32
  %17 = sext i32 %16 to i64
  %18 = call i64 @llvm.expect.i64(i64 %17, i64 1)
  %19 = icmp ne i64 %18, 0
  br i1 %19, label %20, label %135

20:                                               ; preds = %12
  store ptr @H5E_stack_g, ptr %1, align 8, !tbaa !16
  br i1 false, label %21, label %40

21:                                               ; preds = %20
  br label %22

22:                                               ; preds = %21
  br label %23

23:                                               ; preds = %22
  br label %24

24:                                               ; preds = %23
  %25 = load i64, ptr @H5E_ERROR_g, align 8, !tbaa !11
  %26 = load i64, ptr @H5E_CANTGET_g, align 8, !tbaa !11
  %27 = call i32 (ptr, ptr, i32, i64, i64, ptr, ...) @H5E_printf_stack(ptr noundef @.str.1, ptr noundef @__func__.H5E__get_current_stack, i32 noundef 729, i64 noundef %25, i64 noundef %26, ptr noundef @.str.7)
  br label %28

28:                                               ; preds = %24
  br label %29

29:                                               ; preds = %28
  store i8 1, ptr %5, align 1, !tbaa !7
  %30 = load i8, ptr %5, align 1, !tbaa !7, !range !9, !noundef !10
  %31 = trunc i8 %30 to i1
  %32 = zext i1 %31 to i8
  store i8 %32, ptr %5, align 1, !tbaa !7
  br label %33

33:                                               ; preds = %29
  br label %34

34:                                               ; preds = %33
  br label %35

35:                                               ; preds = %34
  store ptr null, ptr %4, align 8, !tbaa !16
  br label %124

36:                                               ; No predecessors!
  br label %37

37:                                               ; preds = %36
  br label %38

38:                                               ; preds = %37
  br label %39

39:                                               ; preds = %38
  br label %40

40:                                               ; preds = %39, %20
  %41 = call noalias ptr @H5FL_reg_calloc(ptr noundef @H5_H5E_stack_t_reg_free_list)
  store ptr %41, ptr %2, align 8, !tbaa !16
  %42 = icmp eq ptr null, %41
  br i1 %42, label %43, label %62

43:                                               ; preds = %40
  br label %44

44:                                               ; preds = %43
  br label %45

45:                                               ; preds = %44
  br label %46

46:                                               ; preds = %45
  %47 = load i64, ptr @H5E_RESOURCE_g, align 8, !tbaa !11
  %48 = load i64, ptr @H5E_NOSPACE_g, align 8, !tbaa !11
  %49 = call i32 (ptr, ptr, i32, i64, i64, ptr, ...) @H5E_printf_stack(ptr noundef @.str.1, ptr noundef @__func__.H5E__get_current_stack, i32 noundef 733, i64 noundef %47, i64 noundef %48, ptr noundef @.str.8)
  br label %50

50:                                               ; preds = %46
  br label %51

51:                                               ; preds = %50
  store i8 1, ptr %5, align 1, !tbaa !7
  %52 = load i8, ptr %5, align 1, !tbaa !7, !range !9, !noundef !10
  %53 = trunc i8 %52 to i1
  %54 = zext i1 %53 to i8
  store i8 %54, ptr %5, align 1, !tbaa !7
  br label %55

55:                                               ; preds = %51
  br label %56

56:                                               ; preds = %55
  br label %57

57:                                               ; preds = %56
  store ptr null, ptr %4, align 8, !tbaa !16
  br label %124

58:                                               ; No predecessors!
  br label %59

59:                                               ; preds = %58
  br label %60

60:                                               ; preds = %59
  br label %61

61:                                               ; preds = %60
  br label %62

62:                                               ; preds = %61, %40
  %63 = load ptr, ptr %1, align 8, !tbaa !16
  %64 = getelementptr inbounds nuw %struct.H5E_stack_t, ptr %63, i32 0, i32 0
  %65 = load i64, ptr %64, align 8, !tbaa !21
  %66 = load ptr, ptr %2, align 8, !tbaa !16
  %67 = getelementptr inbounds nuw %struct.H5E_stack_t, ptr %66, i32 0, i32 0
  store i64 %65, ptr %67, align 8, !tbaa !21
  store i32 0, ptr %3, align 4, !tbaa !3
  br label %68

68:                                               ; preds = %108, %62
  %69 = load i32, ptr %3, align 4, !tbaa !3
  %70 = zext i32 %69 to i64
  %71 = load ptr, ptr %1, align 8, !tbaa !16
  %72 = getelementptr inbounds nuw %struct.H5E_stack_t, ptr %71, i32 0, i32 0
  %73 = load i64, ptr %72, align 8, !tbaa !21
  %74 = icmp ult i64 %70, %73
  br i1 %74, label %75, label %111

75:                                               ; preds = %68
  %76 = load ptr, ptr %2, align 8, !tbaa !16
  %77 = getelementptr inbounds nuw %struct.H5E_stack_t, ptr %76, i32 0, i32 1
  %78 = load i32, ptr %3, align 4, !tbaa !3
  %79 = zext i32 %78 to i64
  %80 = getelementptr inbounds nuw [32 x %struct.H5E_entry_t], ptr %77, i64 0, i64 %79
  %81 = load ptr, ptr %1, align 8, !tbaa !16
  %82 = getelementptr inbounds nuw %struct.H5E_stack_t, ptr %81, i32 0, i32 1
  %83 = load i32, ptr %3, align 4, !tbaa !3
  %84 = zext i32 %83 to i64
  %85 = getelementptr inbounds nuw [32 x %struct.H5E_entry_t], ptr %82, i64 0, i64 %84
  %86 = call i32 @H5E__copy_stack_entry(ptr noundef %80, ptr noundef %85)
  %87 = icmp slt i32 %86, 0
  br i1 %87, label %88, label %107

88:                                               ; preds = %75
  br label %89

89:                                               ; preds = %88
  br label %90

90:                                               ; preds = %89
  br label %91

91:                                               ; preds = %90
  %92 = load i64, ptr @H5E_ERROR_g, align 8, !tbaa !11
  %93 = load i64, ptr @H5E_CANTSET_g, align 8, !tbaa !11
  %94 = call i32 (ptr, ptr, i32, i64, i64, ptr, ...) @H5E_printf_stack(ptr noundef @.str.1, ptr noundef @__func__.H5E__get_current_stack, i32 noundef 739, i64 noundef %92, i64 noundef %93, ptr noundef @.str.10)
  br label %95

95:                                               ; preds = %91
  br label %96

96:                                               ; preds = %95
  store i8 1, ptr %5, align 1, !tbaa !7
  %97 = load i8, ptr %5, align 1, !tbaa !7, !range !9, !noundef !10
  %98 = trunc i8 %97 to i1
  %99 = zext i1 %98 to i8
  store i8 %99, ptr %5, align 1, !tbaa !7
  br label %100

100:                                              ; preds = %96
  br label %101

101:                                              ; preds = %100
  br label %102

102:                                              ; preds = %101
  store ptr null, ptr %4, align 8, !tbaa !16
  br label %124

103:                                              ; No predecessors!
  br label %104

104:                                              ; preds = %103
  br label %105

105:                                              ; preds = %104
  br label %106

106:                                              ; preds = %105
  br label %107

107:                                              ; preds = %106, %75
  br label %108

108:                                              ; preds = %107
  %109 = load i32, ptr %3, align 4, !tbaa !3
  %110 = add i32 %109, 1
  store i32 %110, ptr %3, align 4, !tbaa !3
  br label %68, !llvm.loop !46

111:                                              ; preds = %68
  %112 = load ptr, ptr %2, align 8, !tbaa !16
  %113 = getelementptr inbounds nuw %struct.H5E_stack_t, ptr %112, i32 0, i32 2
  %114 = load ptr, ptr %1, align 8, !tbaa !16
  %115 = getelementptr inbounds nuw %struct.H5E_stack_t, ptr %114, i32 0, i32 2
  call void @llvm.memcpy.p0.p0.i64(ptr align 8 %113, ptr align 8 %115, i64 40, i1 false), !tbaa.struct !48
  %116 = load ptr, ptr %1, align 8, !tbaa !16
  %117 = getelementptr inbounds nuw %struct.H5E_stack_t, ptr %116, i32 0, i32 3
  %118 = load ptr, ptr %117, align 8, !tbaa !30
  %119 = load ptr, ptr %2, align 8, !tbaa !16
  %120 = getelementptr inbounds nuw %struct.H5E_stack_t, ptr %119, i32 0, i32 3
  store ptr %118, ptr %120, align 8, !tbaa !30
  %121 = load ptr, ptr %1, align 8, !tbaa !16
  %122 = call i32 @H5E__destroy_stack(ptr noundef %121)
  %123 = load ptr, ptr %2, align 8, !tbaa !16
  store ptr %123, ptr %4, align 8, !tbaa !16
  br label %124

124:                                              ; preds = %111, %102, %57, %35
  %125 = load ptr, ptr %4, align 8, !tbaa !16
  %126 = icmp eq ptr %125, null
  br i1 %126, label %127, label %134

127:                                              ; preds = %124
  %128 = load ptr, ptr %2, align 8, !tbaa !16
  %129 = icmp ne ptr %128, null
  br i1 %129, label %130, label %133

130:                                              ; preds = %127
  %131 = load ptr, ptr %2, align 8, !tbaa !16
  %132 = call ptr @H5FL_reg_free(ptr noundef @H5_H5E_stack_t_reg_free_list, ptr noundef %131)
  store ptr %132, ptr %2, align 8, !tbaa !16
  br label %133

133:                                              ; preds = %130, %127
  br label %134

134:                                              ; preds = %133, %124
  br label %135

135:                                              ; preds = %134, %12
  %136 = load ptr, ptr %4, align 8, !tbaa !16
  call void @llvm.lifetime.end.p0(i64 1, ptr %5) #9
  call void @llvm.lifetime.end.p0(i64 8, ptr %4) #9
  call void @llvm.lifetime.end.p0(i64 4, ptr %3) #9
  call void @llvm.lifetime.end.p0(i64 8, ptr %2) #9
  call void @llvm.lifetime.end.p0(i64 8, ptr %1) #9
  ret ptr %136
}