; Function Attrs: nounwind uwtable
define ptr @H5E__get_current_stack() local_unnamed_addr #0 {
  %1 = load i8, ptr @H5E_init_g, align 1, !tbaa !3, !range !7, !noundef !8
  %2 = trunc nuw i8 %1 to i1
  %3 = load i8, ptr @H5_libterm_g, align 1, !range !7
  %4 = trunc nuw i8 %3 to i1
  %5 = xor i1 %4, true
  %6 = select i1 %2, i1 true, i1 %5
  br i1 %6, label %7, label %H5E__destroy_stack.exit.thread, !prof !9

7:                                                ; preds = %0
  %8 = tail call noalias ptr @H5FL_reg_calloc(ptr noundef nonnull @H5_H5E_stack_t_reg_free_list) #16
  %9 = icmp eq ptr %8, null
  br i1 %9, label %10, label %14

10:                                               ; preds = %7
  %11 = load i64, ptr @H5E_RESOURCE_g, align 8, !tbaa !10
  %12 = load i64, ptr @H5E_NOSPACE_g, align 8, !tbaa !10
  %13 = tail call i32 (ptr, ptr, i32, i64, i64, ptr, ...) @H5E_printf_stack(ptr noundef nonnull @.str.1, ptr noundef nonnull @__func__.H5E__get_current_stack, i32 noundef 733, i64 noundef %11, i64 noundef %12, ptr noundef nonnull @.str.8)
  br label %H5E__destroy_stack.exit.thread

14:                                               ; preds = %7
  %15 = load i64, ptr @H5E_stack_g, align 16, !tbaa !13
  store i64 %15, ptr %8, align 8, !tbaa !13
  %.not29 = icmp eq i64 %15, 0
  br i1 %.not29, label %._crit_edge, label %.lr.ph

.lr.ph:                                           ; preds = %14
  %16 = getelementptr inbounds nuw i8, ptr %8, i64 8
  br label %17

17:                                               ; preds = %.lr.ph, %23
  %18 = phi i64 [ 0, %.lr.ph ], [ %25, %23 ]
  %.02128 = phi i32 [ 0, %.lr.ph ], [ %24, %23 ]
  %19 = getelementptr inbounds nuw [32 x %struct.H5E_entry_t], ptr %16, i64 0, i64 %18
  %20 = getelementptr inbounds nuw [32 x %struct.H5E_entry_t], ptr getelementptr inbounds nuw (i8, ptr @H5E_stack_g, i64 8), i64 0, i64 %18
  %21 = tail call fastcc i32 @H5E__copy_stack_entry(ptr noundef nonnull %19, ptr noundef nonnull %20)
  %22 = icmp slt i32 %21, 0
  br i1 %22, label %H5E__destroy_stack.exit, label %23

23:                                               ; preds = %17
  %24 = add i32 %.02128, 1
  %.pr = load i64, ptr @H5E_stack_g, align 16, !tbaa !13
  %25 = zext i32 %24 to i64
  %26 = icmp ugt i64 %.pr, %25
  br i1 %26, label %17, label %._crit_edge, !llvm.loop !49

._crit_edge:                                      ; preds = %23, %14
  %.lcssa = phi i64 [ 0, %14 ], [ %.pr, %23 ]
  %27 = getelementptr inbounds nuw i8, ptr %8, i64 2056
  tail call void @llvm.memcpy.p0.p0.i64(ptr noundef nonnull align 8 dereferenceable(40) %27, ptr noundef nonnull align 8 dereferenceable(40) getelementptr inbounds nuw (i8, ptr @H5E_stack_g, i64 2056), i64 40, i1 false), !tbaa.struct !51
  %28 = load ptr, ptr getelementptr inbounds nuw (i8, ptr @H5E_stack_g, i64 2096), align 16, !tbaa !34
  %29 = getelementptr inbounds nuw i8, ptr %8, i64 2096
  store ptr %28, ptr %29, align 8, !tbaa !34
  %30 = load i8, ptr @H5E_init_g, align 1, !tbaa !3, !range !7, !noundef !8
  %31 = trunc nuw i8 %30 to i1
  %32 = load i8, ptr @H5_libterm_g, align 1, !range !7
  %33 = trunc nuw i8 %32 to i1
  %not. = xor i1 %31, true
  %.not = select i1 %not., i1 %33, i1 false
  %.not.i = icmp eq i64 %.lcssa, 0
  %or.cond = or i1 %.not.i, %.not
  br i1 %or.cond, label %H5E__destroy_stack.exit.thread, label %34, !prof !54

34:                                               ; preds = %._crit_edge
  %35 = tail call fastcc i32 @H5E__clear_entries(ptr noundef nonnull @H5E_stack_g, i64 noundef %.lcssa)
  %36 = icmp slt i32 %35, 0
  br i1 %36, label %37, label %H5E__destroy_stack.exit.thread

37:                                               ; preds = %34
  %38 = load i64, ptr @H5E_ERROR_g, align 8, !tbaa !10
  %39 = load i64, ptr @H5E_CANTSET_g, align 8, !tbaa !10
  %40 = tail call i32 (ptr, ptr, i32, i64, i64, ptr, ...) @H5E_printf_stack(ptr noundef nonnull @.str.1, ptr noundef nonnull @__func__.H5E__destroy_stack, i32 noundef 1892, i64 noundef %38, i64 noundef %39, ptr noundef nonnull @.str.15)
  br label %H5E__destroy_stack.exit.thread

H5E__destroy_stack.exit:                          ; preds = %17
  %41 = load i64, ptr @H5E_ERROR_g, align 8, !tbaa !10
  %42 = load i64, ptr @H5E_CANTSET_g, align 8, !tbaa !10
  %43 = tail call i32 (ptr, ptr, i32, i64, i64, ptr, ...) @H5E_printf_stack(ptr noundef nonnull @.str.1, ptr noundef nonnull @__func__.H5E__get_current_stack, i32 noundef 739, i64 noundef %41, i64 noundef %42, ptr noundef nonnull @.str.10)
  %44 = tail call ptr @H5FL_reg_free(ptr noundef nonnull @H5_H5E_stack_t_reg_free_list, ptr noundef nonnull %8) #16
  br label %H5E__destroy_stack.exit.thread

H5E__destroy_stack.exit.thread:                   ; preds = %10, %37, %34, %._crit_edge, %H5E__destroy_stack.exit, %0
  %.0 = phi ptr [ null, %H5E__destroy_stack.exit ], [ null, %0 ], [ %8, %37 ], [ %8, %34 ], [ %8, %._crit_edge ], [ null, %10 ]
  ret ptr %.0
}